target datalayout = "e-m:e-p270:32:32-p271:32:32-p272:64:64-i64:64-i128:128-f80:128-n8:16:32:64-S128"
target triple = "x86_64-pc-linux-gnu"

%struct.rtf_state = type { ptr, ptr, ptr, ptr, i64, i64, i64, i32, i32, i32, [33 x i8] }
%struct.rtf_object_data = type { ptr, i32, i32, i32, i32, ptr, ptr, ptr, i64, i64 }

@.str.12 = private unnamed_addr constant [61 x i8] c"rtf_object_begin: Unable to allocate memory for object data\0A\00", align 1

; Function Attrs: nounwind uwtable
define internal i32 @rtf_object_begin(ptr noundef %0, ptr noundef %1, ptr noundef %2) #0 {
  %4 = alloca i32, align 4
  %5 = alloca ptr, align 8
  %6 = alloca ptr, align 8
  %7 = alloca ptr, align 8
  %8 = alloca ptr, align 8
  store ptr %0, ptr %5, align 8
  store ptr %1, ptr %6, align 8
  store ptr %2, ptr %7, align 8
  %9 = call noalias ptr @malloc(i64 noundef 64) #9
  store ptr %9, ptr %8, align 8
  %10 = load ptr, ptr %8, align 8
  %11 = icmp ne ptr %10, null
  br i1 %11, label %13, label %12

12:                                               ; preds = %3
  call void (ptr, ...) @cli_errmsg(ptr noundef @.str.12)
  store i32 20, ptr %4, align 4
  br label %37

13:                                               ; preds = %3
  %14 = load ptr, ptr %8, align 8
  %15 = getelementptr inbounds %struct.rtf_object_data, ptr %14, i32 0, i32 1
  store i32 -1, ptr %15, align 8
  %16 = load ptr, ptr %8, align 8
  %17 = getelementptr inbounds %struct.rtf_object_data, ptr %16, i32 0, i32 2
  store i32 0, ptr %17, align 4
  %18 = load ptr, ptr %8, align 8
  %19 = getelementptr inbounds %struct.rtf_object_data, ptr %18, i32 0, i32 3
  store i32 0, ptr %19, align 8
  %20 = load ptr, ptr %8, align 8
  %21 = getelementptr inbounds %struct.rtf_object_data, ptr %20, i32 0, i32 9
  store i64 0, ptr %21, align 8
  %22 = load ptr, ptr %8, align 8
  %23 = getelementptr inbounds %struct.rtf_object_data, ptr %22, i32 0, i32 4
  store i32 0, ptr %23, align 4
  %24 = load ptr, ptr %7, align 8
  %25 = load ptr, ptr %8, align 8
  %26 = getelementptr inbounds %struct.rtf_object_data, ptr %25, i32 0, i32 6
  store ptr %24, ptr %26, align 8
  %27 = load ptr, ptr %6, align 8
  %28 = load ptr, ptr %8, align 8
  %29 = getelementptr inbounds %struct.rtf_object_data, ptr %28, i32 0, i32 7
  store ptr %27, ptr %29, align 8
  %30 = load ptr, ptr %8, align 8
  %31 = getelementptr inbounds %struct.rtf_object_data, ptr %30, i32 0, i32 0
  store ptr null, ptr %31, align 8
  %32 = load ptr, ptr %8, align 8
  %33 = getelementptr inbounds %struct.rtf_object_data, ptr %32, i32 0, i32 5
  store ptr null, ptr %33, align 8
  %34 = load ptr, ptr %8, align 8
  %35 = load ptr, ptr %5, align 8
  %36 = getelementptr inbounds %struct.rtf_state, ptr %35, i32 0, i32 3
  store ptr %34, ptr %36, align 8
  store i32 0, ptr %4, align 4
  br label %37

37:                                               ; preds = %13, %12
  %38 = load i32, ptr %4, align 4
  ret i32 %38
}